target datalayout = "e-m:e-p270:32:32-p271:32:32-p272:64:64-i64:64-i128:128-f80:128-n8:16:32:64-S128"
target triple = "x86_64-pc-linux-gnu"

%class.NumberlikeArray = type { i32, i32, ptr }

@_ZTIPKc = external constant ptr
@.str.5 = private unnamed_addr constant [79 x i8] c"BigUnsigned constructor: Cannot construct a BigUnsigned from a negative number\00", align 1

; Function Attrs: mustprogress uwtable
define linkonce_odr void @_ZN11BigUnsigned17initFromPrimitiveIsEEvT_(ptr noundef nonnull align 8 dereferenceable(16) %0, i16 noundef signext %1) #0 comdat align 2 {
  %3 = alloca ptr, align 8
  %4 = alloca i16, align 2
  store ptr %0, ptr %3, align 8, !tbaa !6
  store i16 %1, ptr %4, align 2, !tbaa !22
  %5 = load ptr, ptr %3, align 8
  %6 = load i16, ptr %4, align 2, !tbaa !22
  %7 = sext i16 %6 to i32
  %8 = icmp eq i32 %7, 0
  br i1 %8, label %9, label %10

9:                                                ; preds = %2
  br label %20

10:                                               ; preds = %2
  %11 = getelementptr inbounds nuw %class.NumberlikeArray, ptr %5, i32 0, i32 0
  store i32 1, ptr %11, align 8, !tbaa !15
  %12 = call noalias noundef nonnull ptr @_Znam(i64 noundef 8) #8
  %13 = getelementptr inbounds nuw %class.NumberlikeArray, ptr %5, i32 0, i32 2
  store ptr %12, ptr %13, align 8, !tbaa !20
  %14 = getelementptr inbounds nuw %class.NumberlikeArray, ptr %5, i32 0, i32 1
  store i32 1, ptr %14, align 4, !tbaa !19
  %15 = load i16, ptr %4, align 2, !tbaa !22
  %16 = sext i16 %15 to i64
  %17 = getelementptr inbounds nuw %class.NumberlikeArray, ptr %5, i32 0, i32 2
  %18 = load ptr, ptr %17, align 8, !tbaa !20
  %19 = getelementptr inbounds i64, ptr %18, i64 0
  store i64 %16, ptr %19, align 8, !tbaa !11
  br label %20

20:                                               ; preds = %10, %9
  ret void
}

; Function Attrs: mustprogress nounwind uwtable
define linkonce_odr void @_ZN15NumberlikeArrayImED2Ev(ptr noundef nonnull align 8 dereferenceable(16) %0) unnamed_addr #1 comdat align 2 {
  %2 = alloca ptr, align 8
  store ptr %0, ptr %2, align 8, !tbaa !13
  %3 = load ptr, ptr %2, align 8
  %4 = getelementptr inbounds nuw %class.NumberlikeArray, ptr %3, i32 0, i32 2
  %5 = load ptr, ptr %4, align 8, !tbaa !20
  %6 = icmp eq ptr %5, null
  br i1 %6, label %8, label %7

7:                                                ; preds = %1
  call void @_ZdaPv(ptr noundef %5) #10
  br label %8

8:                                                ; preds = %7, %1
  ret void
}

; Function Attrs: mustprogress uwtable
define linkonce_odr void @_ZN11BigUnsigned23initFromSignedPrimitiveIsEEvT_(ptr noundef nonnull align 8 dereferenceable(16) %0, i16 noundef signext %1) #0 comdat align 2 {
  %3 = alloca ptr, align 8
  %4 = alloca i16, align 2
  store ptr %0, ptr %3, align 8, !tbaa !6
  store i16 %1, ptr %4, align 2, !tbaa !22
  %5 = load ptr, ptr %3, align 8
  %6 = load i16, ptr %4, align 2, !tbaa !22
  %7 = sext i16 %6 to i32
  %8 = icmp slt i32 %7, 0
  br i1 %8, label %9, label %11

9:                                                ; preds = %2
  %10 = call ptr @__cxa_allocate_exception(i64 8) #7
  store ptr @.str.5, ptr %10, align 16, !tbaa !24
  call void @__cxa_throw(ptr %10, ptr @_ZTIPKc, ptr null) #9
  unreachable

11:                                               ; preds = %2
  %12 = load i16, ptr %4, align 2, !tbaa !22
  call void @_ZN11BigUnsigned17initFromPrimitiveIsEEvT_(ptr noundef nonnull align 8 dereferenceable(16) %5, i16 noundef signext %12)
  br label %13

13:                                               ; preds = %11
  ret void
}

; Function Attrs: mustprogress nounwind uwtable
define linkonce_odr void @_ZN15NumberlikeArrayImEC2Ev(ptr noundef nonnull align 8 dereferenceable(16) %0) unnamed_addr #1 comdat align 2 {
  %2 = alloca ptr, align 8
  store ptr %0, ptr %2, align 8, !tbaa !13
  %3 = load ptr, ptr %2, align 8
  %4 = getelementptr inbounds nuw %class.NumberlikeArray, ptr %3, i32 0, i32 0
  store i32 0, ptr %4, align 8, !tbaa !15
  %5 = getelementptr inbounds nuw %class.NumberlikeArray, ptr %3, i32 0, i32 1
  store i32 0, ptr %5, align 4, !tbaa !19
  %6 = getelementptr inbounds nuw %class.NumberlikeArray, ptr %3, i32 0, i32 2
  store ptr null, ptr %6, align 8, !tbaa !20
  ret void
}

; Function Attrs: mustprogress uwtable
define void @_ZN11BigUnsignedC2Es(ptr noundef nonnull align 8 dereferenceable(16) %0, i16 noundef signext %1) unnamed_addr #0 align 2 personality ptr @__gxx_personality_v0 {
  %3 = alloca ptr, align 8
  %4 = alloca i16, align 2
  %5 = alloca ptr, align 8
  %6 = alloca i32, align 4
  store ptr %0, ptr %3, align 8, !tbaa !6
  store i16 %1, ptr %4, align 2, !tbaa !22
  %7 = load ptr, ptr %3, align 8
  call void @_ZN15NumberlikeArrayImEC2Ev(ptr noundef nonnull align 8 dereferenceable(16) %7)
  %8 = load i16, ptr %4, align 2, !tbaa !22
  invoke void @_ZN11BigUnsigned23initFromSignedPrimitiveIsEEvT_(ptr noundef nonnull align 8 dereferenceable(16) %7, i16 noundef signext %8)
          to label %9 unwind label %10

9:                                                ; preds = %2
  ret void

10:                                               ; preds = %2
  %11 = landingpad { ptr, i32 }
          cleanup
  %12 = extractvalue { ptr, i32 } %11, 0
  store ptr %12, ptr %5, align 8
  %13 = extractvalue { ptr, i32 } %11, 1
  store i32 %13, ptr %6, align 4
  call void @_ZN15NumberlikeArrayImED2Ev(ptr noundef nonnull align 8 dereferenceable(16) %7) #7
  br label %14

14:                                               ; preds = %10
  %15 = load ptr, ptr %5, align 8
  %16 = load i32, ptr %6, align 4
  %17 = insertvalue { ptr, i32 } poison, ptr %15, 0
  %18 = insertvalue { ptr, i32 } %17, i32 %16, 1
  resume { ptr, i32 } %18
}