; Function Attrs: mustprogress uwtable
define void @_ZN11BigUnsignedC2Es(ptr noundef nonnull align 8 captures(none) dereferenceable(16) initializes((0, 16)) %0, i16 noundef signext %1) unnamed_addr #0 align 2 personality ptr @__gxx_personality_v0 {
  tail call void @llvm.memset.p0.i64(ptr noundef nonnull align 8 dereferenceable(16) %0, i8 0, i64 16, i1 false)
  %3 = icmp slt i16 %1, 0
  br i1 %3, label %4, label %6

4:                                                ; preds = %2
  %5 = tail call ptr @__cxa_allocate_exception(i64 8) #9
  store ptr @.str.5, ptr %5, align 16, !tbaa !17
  invoke void @__cxa_throw(ptr nonnull %5, ptr nonnull @_ZTIPKc, ptr null) #10
          to label %.noexc unwind label %13

.noexc:                                           ; preds = %4
  unreachable

6:                                                ; preds = %2
  %7 = icmp eq i16 %1, 0
  br i1 %7, label %_ZN11BigUnsigned23initFromSignedPrimitiveIsEEvT_.exit, label %8

8:                                                ; preds = %6
  store i32 1, ptr %0, align 8, !tbaa !6
  %9 = invoke noalias noundef nonnull dereferenceable(8) ptr @_Znam(i64 noundef 8) #8
          to label %.noexc3 unwind label %13

.noexc3:                                          ; preds = %8
  %10 = getelementptr inbounds nuw i8, ptr %0, i64 8
  store ptr %9, ptr %10, align 8, !tbaa !13
  %11 = getelementptr inbounds nuw i8, ptr %0, i64 4
  store i32 1, ptr %11, align 4, !tbaa !14
  %12 = zext nneg i16 %1 to i64
  store i64 %12, ptr %9, align 8, !tbaa !15
  br label %_ZN11BigUnsigned23initFromSignedPrimitiveIsEEvT_.exit

_ZN11BigUnsigned23initFromSignedPrimitiveIsEEvT_.exit: ; preds = %.noexc3, %6
  ret void

13:                                               ; preds = %8, %4
  %14 = landingpad { ptr, i32 }
          cleanup
  %15 = getelementptr inbounds nuw i8, ptr %0, i64 8
  %16 = load ptr, ptr %15, align 8, !tbaa !13
  %17 = icmp eq ptr %16, null
  br i1 %17, label %_ZN15NumberlikeArrayImED2Ev.exit, label %18

18:                                               ; preds = %13
  tail call void @_ZdaPv(ptr noundef nonnull %16) #11
  br label %_ZN15NumberlikeArrayImED2Ev.exit

_ZN15NumberlikeArrayImED2Ev.exit:                 ; preds = %13, %18
  resume { ptr, i32 } %14
}